(dp1
VnanoKONTROL2
p2
(dp3
(L176L
L54L
tp4
(dp5
S'name'
p6
S'Voice 4'
p7
sS'fn'
p8
S'Voices.voice4'
p9
sssViCON G_Boar V1.01
p10
(dp11
(L176L
L78L
tp12
(dp13
S'name'
p14
S'Voice 4'
p15
sS'fn'
p16
S'Voices.voice4'
p17
ss(L176L
L75L
tp18
(dp19
g14
S'Voice 1'
p20
sg16
S'Voices.voice1'
p21
ss(L176L
L77L
tp22
(dp23
g14
S'Voice 3'
p24
sg16
S'Voices.voice3'
p25
ss(L176L
L76L
tp26
(dp27
g14
S'Voice 2'
p28
sg16
S'Voices.voice2'
p29
sssVnanoKONTROL2 1
p30
(dp31
(L176L
L1L
tp32
(dp33
S'name'
p34
S'Room size'
p35
sS'fn'
p36
S'Reverb.roomsize'
p37
ss(L176L
L6L
tp38
(dp39
S'name'
p40
S'Room size'
p41
sS'fn'
p42
S'Reverb.roomsize'
p43
ss(L176L
L35L
tp44
(dp45
S'name'
p46
S'Voice 1'
p47
sS'fn'
p48
S'Voices.voice1'
p49
ss(L176L
L2L
tp50
(dp51
g34
S'Damping'
p52
sg36
S'Reverb.damping'
p53
ss(L176L
L36L
tp54
(dp55
S'name'
p56
S'Voice 2'
p57
sS'fn'
p58
S'Voices.voice2'
p59
sssVnanoKONTROL2
p60
(dp61
sV4- Launchkey 61
p62
(dp63
sVLaunchkey 61
p64
(dp65
(L176L
L113L
tp66
(dp67
S'name'
p68
S'Right'
p69
sS'fn'
p70
S'PresetNav2.right'
p71
ss(L176L
L112L
tp72
(dp73
g68
S'Left'
p74
sg70
S'PresetNav2.left'
p75
ss(L153L
L36L
tp76
(dp77
g6
S'Voice 1'
p78
sg8
S'Voices.voice1'
p79
ss(L153L
L37L
tp80
(dp81
g6
S'Voice 2'
p82
sg8
S'Voices.voice2'
p83
ss(L153L
L38L
tp84
(dp85
g6
S'Voice 3'
p86
sg8
S'Voices.voice3'
p87
ss(L153L
L39L
tp88
(dp89
g6
g7
sg8
g9
sss.