(dp1
ViCON G_Boar V1.01
p2
(dp3
(I176
I78
tp4
(dp5
S'name'
p6
S'Voice 4'
p7
sS'fn'
p8
S'Voices.voice4'
p9
ss(I176
I75
tp10
(dp11
g6
S'Voice 1'
p12
sg8
S'Voices.voice1'
p13
ss(I176
I77
tp14
(dp15
g6
S'Voice 3'
p16
sg8
S'Voices.voice3'
p17
ss(I176
I76
tp18
(dp19
g6
S'Voice 2'
p20
sg8
S'Voices.voice2'
p21
sssVLaunchkey 61
p22
(dp23
(I176
I113
tp24
(dp25
S'name'
p26
S'Right'
p27
sS'fn'
p28
S'PresetNav2.right'
p29
ss(I176
I112
tp30
(dp31
g26
S'Left'
p32
sg28
S'PresetNav2.left'
p33
ss(I153
I36
tp34
(dp35
S'name'
p36
S'Voice 1'
p37
sS'fn'
p38
S'Voices.voice1'
p39
ss(I153
I37
tp40
(dp41
g36
S'Voice 2'
p42
sg38
S'Voices.voice2'
p43
ss(I153
I38
tp44
(dp45
g36
S'Voice 3'
p46
sg38
S'Voices.voice3'
p47
ss(I153
I39
tp48
(dp49
g36
S'Voice 4'
p50
sg38
S'Voices.voice4'
p51
sssVnanoKONTROL2 1
p52
(dp53
(I176
I1
tp54
(dp55
S'name'
p56
S'Room size'
p57
sS'fn'
p58
S'Reverb.roomsize'
p59
ss(I176
I6
tp60
(dp61
S'name'
p62
S'Room size'
p63
sS'fn'
p64
S'Reverb.roomsize'
p65
ss(I176
I35
tp66
(dp67
S'name'
p68
S'Voice 1'
p69
sS'fn'
p70
S'Voices.voice1'
p71
ss(I176
I2
tp72
(dp73
g56
S'Damping'
p74
sg58
S'Reverb.damping'
p75
ss(I176
I36
tp76
(dp77
S'name'
p78
S'Voice 2'
p79
sS'fn'
p80
S'Voices.voice2'
p81
sssVnanoKONTROL2
p82
(dp83
(I176
I54
tp84
(dp85
g36
g50
sg38
g51
sss.